; ModuleID = 'source-C-CXX/0/1331.cpp'
source_filename = "source-C-CXX/0/1331.cpp"
target datalayout = "e-m:e-p270:32:32-p271:32:32-p272:64:64-i64:64-f80:128-n8:16:32:64-S128"
target triple = "x86_64-pc-linux-gnu"

%"class.std::ios_base::Init" = type { i8 }
%"class.std::basic_istream" = type { i32 (...)**, i64, %"class.std::basic_ios" }
%"class.std::basic_ios" = type { %"class.std::ios_base", %"class.std::basic_ostream"*, i8, i8, %"class.std::basic_streambuf"*, %"class.std::ctype"*, %"class.std::num_put"*, %"class.std::num_get"* }
%"class.std::ios_base" = type { i32 (...)**, i64, i64, i32, i32, i32, %"struct.std::ios_base::_Callback_list"*, %"struct.std::ios_base::_Words", [8 x %"struct.std::ios_base::_Words"], i32, %"struct.std::ios_base::_Words"*, %"class.std::locale" }
%"struct.std::ios_base::_Callback_list" = type { %"struct.std::ios_base::_Callback_list"*, void (i32, %"class.std::ios_base"*, i32)*, i32, i32 }
%"struct.std::ios_base::_Words" = type { i8*, i64 }
%"class.std::locale" = type { %"class.std::locale::_Impl"* }
%"class.std::locale::_Impl" = type { i32, %"class.std::locale::facet"**, i64, %"class.std::locale::facet"**, i8** }
%"class.std::locale::facet" = type <{ i32 (...)**, i32, [4 x i8] }>
%"class.std::basic_ostream" = type { i32 (...)**, %"class.std::basic_ios" }
%"class.std::basic_streambuf" = type { i32 (...)**, i8*, i8*, i8*, i8*, i8*, i8*, %"class.std::locale" }
%"class.std::ctype" = type <{ %"class.std::locale::facet.base", [4 x i8], %struct.__locale_struct*, i8, [7 x i8], i32*, i32*, i16*, i8, [256 x i8], [256 x i8], i8, [6 x i8] }>
%"class.std::locale::facet.base" = type <{ i32 (...)**, i32 }>
%struct.__locale_struct = type { [13 x %struct.__locale_data*], i16*, i32*, i32*, [13 x i8*] }
%struct.__locale_data = type opaque
%"class.std::num_put" = type { %"class.std::locale::facet.base", [4 x i8] }
%"class.std::num_get" = type { %"class.std::locale::facet.base", [4 x i8] }

@_ZStL8__ioinit = internal global %"class.std::ios_base::Init" zeroinitializer, align 1
@__dso_handle = external hidden global i8
@k = dso_local local_unnamed_addr global i32 0, align 4
@_ZSt3cin = external global %"class.std::basic_istream", align 8
@_ZSt4cout = external global %"class.std::basic_ostream", align 8
@llvm.global_ctors = appending global [1 x { i32, void ()*, i8* }] [{ i32, void ()*, i8* } { i32 65535, void ()* @_GLOBAL__sub_I_1331.cpp, i8* null }]

declare void @_ZNSt8ios_base4InitC1Ev(%"class.std::ios_base::Init"* nonnull align 1 dereferenceable(1)) unnamed_addr #0

; Function Attrs: nounwind
declare void @_ZNSt8ios_base4InitD1Ev(%"class.std::ios_base::Init"* nonnull align 1 dereferenceable(1)) unnamed_addr #1

; Function Attrs: nofree nounwind
declare i32 @__cxa_atexit(void (i8*)*, i8*, i8*) local_unnamed_addr #2

; Function Attrs: mustprogress norecurse sspstrong uwtable
define dso_local i32 @main() local_unnamed_addr #3 {
  %1 = alloca i32, align 4
  %2 = alloca i32, align 4
  %3 = bitcast i32* %1 to i8*
  call void @llvm.lifetime.start.p0i8(i64 4, i8* nonnull %3) #9
  %4 = bitcast i32* %2 to i8*
  call void @llvm.lifetime.start.p0i8(i64 4, i8* nonnull %4) #9
  %5 = call nonnull align 8 dereferenceable(16) %"class.std::basic_istream"* @_ZNSirsERi(%"class.std::basic_istream"* nonnull align 8 dereferenceable(16) @_ZSt3cin, i32* nonnull align 4 dereferenceable(4) %1)
  %6 = load i32, i32* %1, align 4, !tbaa !5
  %7 = icmp sgt i32 %6, 0
  br i1 %7, label %8, label %65

8:                                                ; preds = %0, %58
  %9 = phi i32 [ %62, %58 ], [ 0, %0 ]
  store i32 0, i32* @k, align 4, !tbaa !5
  %10 = call nonnull align 8 dereferenceable(16) %"class.std::basic_istream"* @_ZNSirsERi(%"class.std::basic_istream"* nonnull align 8 dereferenceable(16) @_ZSt3cin, i32* nonnull align 4 dereferenceable(4) %2)
  %11 = load i32, i32* %2, align 4, !tbaa !5
  %12 = sitofp i32 %11 to double
  %13 = call double @sqrt(double %12) #9
  %14 = fadd double %13, 1.000000e+00
  %15 = fptosi double %14 to i32
  %16 = icmp sgt i32 %15, 2
  br i1 %16, label %17, label %29

17:                                               ; preds = %8, %26
  %18 = phi i32 [ %27, %26 ], [ 2, %8 ]
  %19 = load i32, i32* %2, align 4, !tbaa !5
  %20 = srem i32 %19, %18
  %21 = sdiv i32 %19, %18
  %22 = icmp eq i32 %20, 0
  br i1 %22, label %23, label %26

23:                                               ; preds = %17
  %24 = load i32, i32* @k, align 4, !tbaa !5
  %25 = add nsw i32 %24, 1
  store i32 %25, i32* @k, align 4, !tbaa !5
  call void @_Z5countii(i32 %21, i32 %18)
  br label %26

26:                                               ; preds = %17, %23
  %27 = add nuw nsw i32 %18, 1
  %28 = icmp eq i32 %27, %15
  br i1 %28, label %29, label %17, !llvm.loop !9

29:                                               ; preds = %26, %8
  %30 = load i32, i32* @k, align 4, !tbaa !5
  %31 = add nsw i32 %30, 1
  %32 = call nonnull align 8 dereferenceable(8) %"class.std::basic_ostream"* @_ZNSolsEi(%"class.std::basic_ostream"* nonnull align 8 dereferenceable(8) @_ZSt4cout, i32 %31)
  %33 = bitcast %"class.std::basic_ostream"* %32 to i8**
  %34 = load i8*, i8** %33, align 8, !tbaa !11
  %35 = getelementptr i8, i8* %34, i64 -24
  %36 = bitcast i8* %35 to i64*
  %37 = load i64, i64* %36, align 8
  %38 = bitcast %"class.std::basic_ostream"* %32 to i8*
  %39 = add nsw i64 %37, 240
  %40 = getelementptr inbounds i8, i8* %38, i64 %39
  %41 = bitcast i8* %40 to %"class.std::ctype"**
  %42 = load %"class.std::ctype"*, %"class.std::ctype"** %41, align 8, !tbaa !13
  %43 = icmp eq %"class.std::ctype"* %42, null
  br i1 %43, label %44, label %45

44:                                               ; preds = %29
  call void @_ZSt16__throw_bad_castv() #10
  unreachable

45:                                               ; preds = %29
  %46 = getelementptr inbounds %"class.std::ctype", %"class.std::ctype"* %42, i64 0, i32 8
  %47 = load i8, i8* %46, align 8, !tbaa !17
  %48 = icmp eq i8 %47, 0
  br i1 %48, label %52, label %49

49:                                               ; preds = %45
  %50 = getelementptr inbounds %"class.std::ctype", %"class.std::ctype"* %42, i64 0, i32 9, i64 10
  %51 = load i8, i8* %50, align 1, !tbaa !19
  br label %58

52:                                               ; preds = %45
  call void @_ZNKSt5ctypeIcE13_M_widen_initEv(%"class.std::ctype"* nonnull align 8 dereferenceable(570) %42)
  %53 = bitcast %"class.std::ctype"* %42 to i8 (%"class.std::ctype"*, i8)***
  %54 = load i8 (%"class.std::ctype"*, i8)**, i8 (%"class.std::ctype"*, i8)*** %53, align 8, !tbaa !11
  %55 = getelementptr inbounds i8 (%"class.std::ctype"*, i8)*, i8 (%"class.std::ctype"*, i8)** %54, i64 6
  %56 = load i8 (%"class.std::ctype"*, i8)*, i8 (%"class.std::ctype"*, i8)** %55, align 8
  %57 = call signext i8 %56(%"class.std::ctype"* nonnull align 8 dereferenceable(570) %42, i8 signext 10)
  br label %58

58:                                               ; preds = %49, %52
  %59 = phi i8 [ %51, %49 ], [ %57, %52 ]
  %60 = call nonnull align 8 dereferenceable(8) %"class.std::basic_ostream"* @_ZNSo3putEc(%"class.std::basic_ostream"* nonnull align 8 dereferenceable(8) %32, i8 signext %59)
  %61 = call nonnull align 8 dereferenceable(8) %"class.std::basic_ostream"* @_ZNSo5flushEv(%"class.std::basic_ostream"* nonnull align 8 dereferenceable(8) %60)
  %62 = add nuw nsw i32 %9, 1
  %63 = load i32, i32* %1, align 4, !tbaa !5
  %64 = icmp slt i32 %62, %63
  br i1 %64, label %8, label %65, !llvm.loop !20

65:                                               ; preds = %58, %0
  call void @llvm.lifetime.end.p0i8(i64 4, i8* nonnull %4) #9
  call void @llvm.lifetime.end.p0i8(i64 4, i8* nonnull %3) #9
  ret i32 0
}

; Function Attrs: argmemonly mustprogress nofree nosync nounwind willreturn
declare void @llvm.lifetime.start.p0i8(i64 immarg, i8* nocapture) #4

declare nonnull align 8 dereferenceable(16) %"class.std::basic_istream"* @_ZNSirsERi(%"class.std::basic_istream"* nonnull align 8 dereferenceable(16), i32* nonnull align 4 dereferenceable(4)) local_unnamed_addr #0

; Function Attrs: mustprogress nofree nounwind sspstrong uwtable
define dso_local void @_Z5countii(i32 %0, i32 %1) local_unnamed_addr #5 {
  %3 = sitofp i32 %0 to double
  %4 = tail call double @sqrt(double %3) #9
  %5 = fptosi double %4 to i32
  %6 = icmp slt i32 %5, %1
  br i1 %6, label %18, label %7

7:                                                ; preds = %2, %15
  %8 = phi i32 [ %16, %15 ], [ %1, %2 ]
  %9 = srem i32 %0, %8
  %10 = sdiv i32 %0, %8
  %11 = icmp eq i32 %9, 0
  br i1 %11, label %12, label %15

12:                                               ; preds = %7
  %13 = load i32, i32* @k, align 4, !tbaa !5
  %14 = add nsw i32 %13, 1
  store i32 %14, i32* @k, align 4, !tbaa !5
  tail call void @_Z5countii(i32 %10, i32 %8)
  br label %15

15:                                               ; preds = %7, %12
  %16 = add i32 %8, 1
  %17 = icmp eq i32 %8, %5
  br i1 %17, label %18, label %7, !llvm.loop !21

18:                                               ; preds = %15, %2
  ret void
}

declare nonnull align 8 dereferenceable(8) %"class.std::basic_ostream"* @_ZNSolsEi(%"class.std::basic_ostream"* nonnull align 8 dereferenceable(8), i32) local_unnamed_addr #0

; Function Attrs: argmemonly mustprogress nofree nosync nounwind willreturn
declare void @llvm.lifetime.end.p0i8(i64 immarg, i8* nocapture) #4

; Function Attrs: mustprogress nofree nounwind willreturn
declare double @sqrt(double) local_unnamed_addr #6

declare nonnull align 8 dereferenceable(8) %"class.std::basic_ostream"* @_ZNSo3putEc(%"class.std::basic_ostream"* nonnull align 8 dereferenceable(8), i8 signext) local_unnamed_addr #0

declare nonnull align 8 dereferenceable(8) %"class.std::basic_ostream"* @_ZNSo5flushEv(%"class.std::basic_ostream"* nonnull align 8 dereferenceable(8)) local_unnamed_addr #0

; Function Attrs: noreturn
declare void @_ZSt16__throw_bad_castv() local_unnamed_addr #7

declare void @_ZNKSt5ctypeIcE13_M_widen_initEv(%"class.std::ctype"* nonnull align 8 dereferenceable(570)) local_unnamed_addr #0

; Function Attrs: sspstrong uwtable
define internal void @_GLOBAL__sub_I_1331.cpp() #8 section ".text.startup" {
  tail call void @_ZNSt8ios_base4InitC1Ev(%"class.std::ios_base::Init"* nonnull align 1 dereferenceable(1) @_ZStL8__ioinit)
  %1 = tail call i32 @__cxa_atexit(void (i8*)* bitcast (void (%"class.std::ios_base::Init"*)* @_ZNSt8ios_base4InitD1Ev to void (i8*)*), i8* getelementptr inbounds (%"class.std::ios_base::Init", %"class.std::ios_base::Init"* @_ZStL8__ioinit, i64 0, i32 0), i8* nonnull @__dso_handle) #9
  ret void
}


!llvm.module.flags = !{!0, !1, !2, !3}
!llvm.ident = !{!4}

!0 = !{i32 1, !"wchar_size", i32 4}
!1 = !{i32 7, !"PIC Level", i32 2}
!2 = !{i32 7, !"PIE Level", i32 2}
!3 = !{i32 7, !"uwtable", i32 1}
!4 = !{!"clang version 13.0.0"}
!5 = !{!6, !6, i64 0}
!6 = !{!"int", !7, i64 0}
!7 = !{!"omnipotent char", !8, i64 0}
!8 = !{!"Simple C++ TBAA"}
!9 = distinct !{!9, !10}
!10 = !{!"llvm.loop.mustprogress"}
!11 = !{!12, !12, i64 0}
!12 = !{!"vtable pointer", !8, i64 0}
!13 = !{!14, !15, i64 240}
!14 = !{!"_ZTSSt9basic_iosIcSt11char_traitsIcEE", !15, i64 216, !7, i64 224, !16, i64 225, !15, i64 232, !15, i64 240, !15, i64 248, !15, i64 256}
!15 = !{!"any pointer", !7, i64 0}
!16 = !{!"bool", !7, i64 0}
!17 = !{!18, !7, i64 56}
!18 = !{!"_ZTSSt5ctypeIcE", !15, i64 16, !16, i64 24, !15, i64 32, !15, i64 40, !15, i64 48, !7, i64 56, !7, i64 57, !7, i64 313, !7, i64 569}
!19 = !{!7, !7, i64 0}
!20 = distinct !{!20, !10}
!21 = distinct !{!21, !10}
